target datalayout = "e-m:e-p270:32:32-p271:32:32-p272:64:64-i64:64-i128:128-f80:128-n8:16:32:64-S128"
target triple = "x86_64-pc-linux-gnu"

%class.OverlayScrollBar = type <{ %class.QScrollBar, ptr, ptr, %class.QScrollBar, %class.QImage, %class.QImage, i32, i32, i32, i32, i32, [4 x i8], %class.QList, i32, [4 x i8] }>
%class.QScrollBar = type { %class.QAbstractSlider }
%class.QAbstractSlider = type { %class.QWidget }
%class.QWidget = type { %class.QObject, %class.QPaintDevice.base, ptr }
%class.QObject = type { ptr, %class.QScopedPointer }
%class.QScopedPointer = type { ptr }
%class.QPaintDevice.base = type <{ ptr, i16 }>
%class.QImage = type { %class.QPaintDevice.base, ptr }
%class.QList = type { %struct.QArrayDataPointer }
%struct.QArrayDataPointer = type { ptr, ptr, i64 }
%class.QRect = type { i32, i32, i32, i32 }
%class.QStyleOptionSlider = type { %class.QStyleOptionComplex, i32, i32, i32, i32, i32, i8, i32, i32, i32, i32, double, i8, %class.QFlags.1 }
%class.QStyleOptionComplex = type { %class.QStyleOption, %class.QFlags.0, %class.QFlags.0 }
%class.QStyleOption = type { i32, i32, %class.QFlags, i32, %class.QRect, %class.QFontMetrics, %class.QPalette, ptr }
%class.QFlags = type { i32 }
%class.QFontMetrics = type { %class.QExplicitlySharedDataPointer }
%class.QExplicitlySharedDataPointer = type { ptr }
%class.QPalette = type <{ ptr, i32, [4 x i8] }>
%class.QFlags.0 = type { i32 }
%class.QFlags.1 = type { i32 }
%class.QWidgetData = type { i64, i32, %class.QFlags.18, i32, %class.QRect, [4 x i8], %class.QPalette, %class.QFont, %class.QRect }
%class.QFlags.18 = type { i32 }
%class.QFont = type <{ %class.QExplicitlySharedDataPointer, i32, [4 x i8] }>

; Function Attrs: mustprogress nounwind uwtable
define linkonce_odr void @_ZN19QStyleOptionComplexD2Ev(ptr noundef nonnull align 8 dereferenceable(72) %0) unnamed_addr #4 comdat align 2 {
  %2 = alloca ptr, align 8
  store ptr %0, ptr %2, align 8
  %3 = load ptr, ptr %2, align 8
  call void @_ZN12QStyleOptionD2Ev(ptr noundef nonnull align 8 dereferenceable(64) %3) #11
  ret void
}

; Function Attrs: mustprogress nounwind uwtable
define linkonce_odr void @_ZN5QRectC2Eiiii(ptr noundef nonnull align 4 dereferenceable(16) %0, i32 noundef %1, i32 noundef %2, i32 noundef %3, i32 noundef %4) unnamed_addr #4 comdat align 2 {
  %6 = alloca ptr, align 8
  %7 = alloca i32, align 4
  %8 = alloca i32, align 4
  %9 = alloca i32, align 4
  %10 = alloca i32, align 4
  store ptr %0, ptr %6, align 8
  store i32 %1, ptr %7, align 4
  store i32 %2, ptr %8, align 4
  store i32 %3, ptr %9, align 4
  store i32 %4, ptr %10, align 4
  %11 = load ptr, ptr %6, align 8
  %12 = getelementptr inbounds %class.QRect, ptr %11, i32 0, i32 0
  %13 = load i32, ptr %7, align 4
  store i32 %13, ptr %12, align 4
  %14 = getelementptr inbounds %class.QRect, ptr %11, i32 0, i32 1
  %15 = load i32, ptr %8, align 4
  store i32 %15, ptr %14, align 4
  %16 = getelementptr inbounds %class.QRect, ptr %11, i32 0, i32 2
  %17 = load i32, ptr %7, align 4
  %18 = load i32, ptr %9, align 4
  %19 = add i32 %17, %18
  %20 = sub i32 %19, 1
  store i32 %20, ptr %16, align 4
  %21 = getelementptr inbounds %class.QRect, ptr %11, i32 0, i32 3
  %22 = load i32, ptr %8, align 4
  %23 = load i32, ptr %10, align 4
  %24 = add i32 %22, %23
  %25 = sub i32 %24, 1
  store i32 %25, ptr %21, align 4
  ret void
}

; Function Attrs: mustprogress nounwind uwtable
define linkonce_odr noundef i32 @_ZNK5QRect6heightEv(ptr noundef nonnull align 4 dereferenceable(16) %0) #4 comdat align 2 {
  %2 = alloca ptr, align 8
  store ptr %0, ptr %2, align 8
  %3 = load ptr, ptr %2, align 8
  %4 = getelementptr inbounds %class.QRect, ptr %3, i32 0, i32 3
  %5 = load i32, ptr %4, align 4
  %6 = getelementptr inbounds %class.QRect, ptr %3, i32 0, i32 1
  %7 = load i32, ptr %6, align 4
  %8 = sub i32 %5, %7
  %9 = add i32 %8, 1
  ret i32 %9
}

; Function Attrs: mustprogress nounwind uwtable
define linkonce_odr noundef i32 @_ZNK5QRect5widthEv(ptr noundef nonnull align 4 dereferenceable(16) %0) #4 comdat align 2 {
  %2 = alloca ptr, align 8
  store ptr %0, ptr %2, align 8
  %3 = load ptr, ptr %2, align 8
  %4 = getelementptr inbounds %class.QRect, ptr %3, i32 0, i32 2
  %5 = load i32, ptr %4, align 4
  %6 = getelementptr inbounds %class.QRect, ptr %3, i32 0, i32 0
  %7 = load i32, ptr %6, align 4
  %8 = sub i32 %5, %7
  %9 = add i32 %8, 1
  ret i32 %9
}

; Function Attrs: mustprogress nounwind uwtable
define linkonce_odr void @_ZN18QStyleOptionSliderD2Ev(ptr noundef nonnull align 8 dereferenceable(128) %0) unnamed_addr #4 comdat align 2 {
  %2 = alloca ptr, align 8
  store ptr %0, ptr %2, align 8
  %3 = load ptr, ptr %2, align 8
  call void @_ZN19QStyleOptionComplexD2Ev(ptr noundef nonnull align 8 dereferenceable(72) %3) #11
  ret void
}

; Function Attrs: mustprogress nounwind uwtable
define linkonce_odr { i64, i64 } @_ZNK7QWidget4rectEv(ptr noundef nonnull align 8 dereferenceable(40) %0) #4 comdat align 2 {
  %2 = alloca %class.QRect, align 4
  %3 = alloca ptr, align 8
  store ptr %0, ptr %3, align 8
  %4 = load ptr, ptr %3, align 8
  %5 = getelementptr inbounds %class.QWidget, ptr %4, i32 0, i32 2
  %6 = load ptr, ptr %5, align 8
  %7 = getelementptr inbounds %class.QWidgetData, ptr %6, i32 0, i32 4
  %8 = call noundef i32 @_ZNK5QRect5widthEv(ptr noundef nonnull align 4 dereferenceable(16) %7) #11
  %9 = getelementptr inbounds %class.QWidget, ptr %4, i32 0, i32 2
  %10 = load ptr, ptr %9, align 8
  %11 = getelementptr inbounds %class.QWidgetData, ptr %10, i32 0, i32 4
  %12 = call noundef i32 @_ZNK5QRect6heightEv(ptr noundef nonnull align 4 dereferenceable(16) %11) #11
  call void @_ZN5QRectC2Eiiii(ptr noundef nonnull align 4 dereferenceable(16) %2, i32 noundef 0, i32 noundef 0, i32 noundef %8, i32 noundef %12) #11
  %13 = load { i64, i64 }, ptr %2, align 4
  ret { i64, i64 } %13
}

; Function Attrs: mustprogress uwtable
define { i64, i64 } @_ZN16OverlayScrollBar10grooveRectEv(ptr noundef nonnull align 8 dereferenceable(196) %0) #0 align 2 personality ptr @__gxx_personality_v0 {
  %2 = alloca %class.QRect, align 4
  %3 = alloca ptr, align 8
  %4 = alloca %class.QStyleOptionSlider, align 8
  %5 = alloca ptr, align 8
  %6 = alloca i32, align 4
  %7 = alloca %class.QRect, align 4
  store ptr %0, ptr %3, align 8
  %8 = load ptr, ptr %3, align 8
  call void @_ZN18QStyleOptionSliderC1Ev(ptr noundef nonnull align 8 dereferenceable(128) %4)
  %9 = load ptr, ptr %8, align 8
  %10 = getelementptr inbounds ptr, ptr %9, i64 53
  %11 = load ptr, ptr %10, align 8
  invoke void %11(ptr noundef nonnull align 8 dereferenceable(40) %8, ptr noundef %4)
          to label %12 unwind label %35

12:                                               ; preds = %1
  %13 = getelementptr inbounds %class.OverlayScrollBar, ptr %8, i32 0, i32 3
  %14 = invoke { i64, i64 } @_ZNK7QWidget4rectEv(ptr noundef nonnull align 8 dereferenceable(40) %13)
          to label %15 unwind label %35

15:                                               ; preds = %12
  %16 = getelementptr inbounds { i64, i64 }, ptr %7, i32 0, i32 0
  %17 = extractvalue { i64, i64 } %14, 0
  store i64 %17, ptr %16, align 4
  %18 = getelementptr inbounds { i64, i64 }, ptr %7, i32 0, i32 1
  %19 = extractvalue { i64, i64 } %14, 1
  store i64 %19, ptr %18, align 4
  %20 = getelementptr inbounds %class.QStyleOption, ptr %4, i32 0, i32 4
  call void @llvm.memcpy.p0.p0.i64(ptr align 8 %20, ptr align 4 %7, i64 16, i1 false)
  %21 = getelementptr inbounds %class.OverlayScrollBar, ptr %8, i32 0, i32 3
  %22 = invoke noundef ptr @_ZNK7QWidget5styleEv(ptr noundef nonnull align 8 dereferenceable(40) %21)
          to label %23 unwind label %35

23:                                               ; preds = %15
  %24 = getelementptr inbounds %class.OverlayScrollBar, ptr %8, i32 0, i32 3
  %25 = load ptr, ptr %22, align 8
  %26 = getelementptr inbounds ptr, ptr %25, i64 27
  %27 = load ptr, ptr %26, align 8
  %28 = invoke { i64, i64 } %27(ptr noundef nonnull align 8 dereferenceable(16) %22, i32 noundef 2, ptr noundef %4, i32 noundef 128, ptr noundef %24)
          to label %29 unwind label %35

29:                                               ; preds = %23
  %30 = getelementptr inbounds { i64, i64 }, ptr %2, i32 0, i32 0
  %31 = extractvalue { i64, i64 } %28, 0
  store i64 %31, ptr %30, align 4
  %32 = getelementptr inbounds { i64, i64 }, ptr %2, i32 0, i32 1
  %33 = extractvalue { i64, i64 } %28, 1
  store i64 %33, ptr %32, align 4
  call void @_ZN18QStyleOptionSliderD2Ev(ptr noundef nonnull align 8 dereferenceable(128) %4) #11
  %34 = load { i64, i64 }, ptr %2, align 4
  ret { i64, i64 } %34

35:                                               ; preds = %23, %15, %12, %1
  %36 = landingpad { ptr, i32 }
          cleanup
  %37 = extractvalue { ptr, i32 } %36, 0
  store ptr %37, ptr %5, align 8
  %38 = extractvalue { ptr, i32 } %36, 1
  store i32 %38, ptr %6, align 4
  call void @_ZN18QStyleOptionSliderD2Ev(ptr noundef nonnull align 8 dereferenceable(128) %4) #11
  br label %39

39:                                               ; preds = %35
  %40 = load ptr, ptr %5, align 8
  %41 = load i32, ptr %6, align 4
  %42 = insertvalue { ptr, i32 } poison, ptr %40, 0
  %43 = insertvalue { ptr, i32 } %42, i32 %41, 1
  resume { ptr, i32 } %43
}