; Function Attrs: mustprogress uwtable
define { i64, i64 } @_ZN16OverlayScrollBar10grooveRectEv(ptr noundef nonnull align 8 dereferenceable(196) %0) local_unnamed_addr #0 align 2 personality ptr @__gxx_personality_v0 {
  %2 = alloca %class.QStyleOptionSlider, align 8
  call void @_ZN18QStyleOptionSliderC1Ev(ptr noundef nonnull align 8 dereferenceable(128) %2)
  %3 = load ptr, ptr %0, align 8
  %4 = getelementptr inbounds i8, ptr %3, i64 424
  %5 = load ptr, ptr %4, align 8
  invoke void %5(ptr noundef nonnull align 8 dereferenceable(40) %0, ptr noundef nonnull %2)
          to label %6 unwind label %28

6:                                                ; preds = %1
  %7 = getelementptr inbounds i8, ptr %0, i64 56
  %8 = getelementptr inbounds i8, ptr %0, i64 88
  %9 = load ptr, ptr %8, align 8
  %10 = getelementptr inbounds i8, ptr %9, i64 20
  %11 = getelementptr inbounds i8, ptr %9, i64 28
  %12 = load i32, ptr %11, align 4
  %13 = load i32, ptr %10, align 4
  %14 = getelementptr inbounds i8, ptr %9, i64 32
  %15 = load i32, ptr %14, align 4
  %16 = getelementptr inbounds i8, ptr %9, i64 24
  %17 = load i32, ptr %16, align 4
  %18 = sub i32 %12, %13
  %19 = sub i32 %15, %17
  %.sroa.5.8.insert.ext.i = zext i32 %19 to i64
  %.sroa.5.8.insert.shift.i = shl nuw i64 %.sroa.5.8.insert.ext.i, 32
  %.sroa.3.8.insert.ext.i = zext i32 %18 to i64
  %.sroa.3.8.insert.insert.i = or disjoint i64 %.sroa.5.8.insert.shift.i, %.sroa.3.8.insert.ext.i
  %20 = getelementptr inbounds i8, ptr %2, i64 16
  store i64 0, ptr %20, align 8
  %.sroa.2.0..sroa_idx = getelementptr inbounds i8, ptr %2, i64 24
  store i64 %.sroa.3.8.insert.insert.i, ptr %.sroa.2.0..sroa_idx, align 8
  %21 = invoke noundef ptr @_ZNK7QWidget5styleEv(ptr noundef nonnull align 8 dereferenceable(40) %7)
          to label %22 unwind label %28

22:                                               ; preds = %6
  %23 = load ptr, ptr %21, align 8
  %24 = getelementptr inbounds i8, ptr %23, i64 216
  %25 = load ptr, ptr %24, align 8
  %26 = invoke { i64, i64 } %25(ptr noundef nonnull align 8 dereferenceable(16) %21, i32 noundef 2, ptr noundef nonnull %2, i32 noundef 128, ptr noundef nonnull %7)
          to label %27 unwind label %28

27:                                               ; preds = %22
  call void @_ZN12QStyleOptionD2Ev(ptr noundef nonnull align 8 dereferenceable(64) %2) #11
  ret { i64, i64 } %26

28:                                               ; preds = %22, %6, %1
  %29 = landingpad { ptr, i32 }
          cleanup
  call void @_ZN12QStyleOptionD2Ev(ptr noundef nonnull align 8 dereferenceable(64) %2) #11
  resume { ptr, i32 } %29
}